Certificate:
    Data:
        Version: 3 (0x2)
        Serial Number: 2 (0x2)
    Signature Algorithm: sha256WithRSAEncryption
        Issuer: CN=123.126.110.27
        Validity
            Not Before: Jun 12 11:06:27 2017 GMT
            Not After : Jun 10 11:06:27 2027 GMT
        Subject: CN=hd_2
        Subject Public Key Info:
            Public Key Algorithm: rsaEncryption
                Public-Key: (2048 bit)
                Modulus:
                    00:ac:4c:fe:c5:a7:6f:85:00:27:b0:44:07:f6:04:
                    0e:13:b5:e2:85:69:d8:21:43:16:4d:d4:2f:ce:06:
                    2d:56:54:7e:b0:1f:59:d2:2e:63:dc:83:5e:5a:e2:
                    d8:89:ec:f0:ac:02:a9:b6:ac:ba:9d:5f:d9:b2:65:
                    2f:41:bc:91:bc:d3:4b:a7:e3:ab:d1:c5:a6:37:39:
                    1f:c7:72:3b:77:a5:d4:fb:7b:9e:d8:82:83:2a:00:
                    be:76:42:1e:d8:4a:78:ee:df:e4:34:65:2e:e3:ff:
                    7e:94:e7:ba:62:17:82:ce:f9:ec:04:a1:47:71:57:
                    b4:47:dc:b1:b8:83:85:d5:48:4e:8a:aa:35:ef:ef:
                    66:32:a1:a0:74:aa:c8:ce:d4:14:71:e1:d2:d2:cc:
                    92:3c:a6:40:ed:ef:46:1e:6a:00:75:6d:4d:64:8d:
                    9a:16:77:22:b7:33:63:ae:6c:9f:3f:ef:58:cb:3e:
                    73:f3:80:5b:18:4b:86:4e:9a:66:de:f9:2a:df:67:
                    08:f7:76:1d:dc:0c:22:15:ad:bd:a7:0d:fc:17:de:
                    3f:46:f2:78:c2:45:c9:97:c0:e5:c3:b9:7a:1f:90:
                    fe:a5:46:3e:58:6b:8d:48:dd:f7:67:b1:36:24:d3:
                    30:a9:c9:cd:c0:72:47:9c:74:cc:f9:f8:1c:64:be:
                    b0:a3
                Exponent: 65537 (0x10001)
        X509v3 extensions:
            X509v3 Basic Constraints: 
                CA:FALSE
            X509v3 Subject Key Identifier: 
                BA:89:A0:64:93:A1:46:06:9C:DF:26:B4:F8:9C:1D:3D:07:55:1E:54
            X509v3 Authority Key Identifier: 
                keyid:C0:D0:D2:9F:8D:8B:D7:26:58:05:F8:8C:B2:24:13:CB:C2:44:DA:9B
                DirName:/CN=123.126.110.27
                serial:E7:7B:A4:0A:0D:66:90:1D

            X509v3 Extended Key Usage: 
                TLS Web Client Authentication
            X509v3 Key Usage: 
                Digital Signature
    Signature Algorithm: sha256WithRSAEncryption
         92:2b:b2:93:43:78:aa:da:3e:67:8f:6c:d3:93:a8:f2:0d:06:
         ad:3e:36:22:3e:70:8a:ec:3f:85:0a:fa:41:a2:a2:9d:d7:a0:
         4b:70:c5:49:81:77:55:3f:4a:29:87:18:75:fc:86:d1:ef:b4:
         62:36:06:fb:74:c7:0e:ee:6a:98:dc:7b:46:12:94:79:b1:0a:
         8e:bc:cc:4d:15:c1:00:22:4a:83:65:d1:f9:83:7f:5e:9a:d0:
         6d:ba:64:cf:b6:96:52:49:71:ec:ed:7d:b4:82:cb:ca:d3:8a:
         8c:22:ce:7d:fe:ab:d2:09:4d:29:81:4e:fb:f6:94:37:a0:6f:
         25:df:2a:08:d1:d3:2b:9d:33:08:7a:84:79:61:e5:fe:35:58:
         4f:7d:19:2d:e9:f3:f1:19:fd:3f:a5:ff:f8:f0:3b:a1:38:12:
         3e:ee:81:6d:da:c6:57:2d:26:a0:b0:32:37:02:3f:25:49:46:
         d6:0c:ae:f7:2e:17:06:55:14:91:f7:4b:f1:5c:73:dd:74:ae:
         a1:50:55:57:e4:5f:79:4d:3c:ff:e8:f9:86:33:4f:69:cc:a4:
         b2:c1:e2:c5:2a:37:d4:fa:69:ca:5a:f9:d5:ca:c8:46:50:83:
         81:0c:bb:d1:ac:b1:51:f0:5e:22:0e:ac:17:39:1f:81:46:41:
         e9:25:0e:61
-----BEGIN CERTIFICATE-----
MIIDPjCCAiagAwIBAgIBAjANBgkqhkiG9w0BAQsFADAZMRcwFQYDVQQDDA4xMjMu
MTI2LjExMC4yNzAeFw0xNzA2MTIxMTA2MjdaFw0yNzA2MTAxMTA2MjdaMA8xDTAL
BgNVBAMMBGhkXzIwggEiMA0GCSqGSIb3DQEBAQUAA4IBDwAwggEKAoIBAQCsTP7F
p2+FACewRAf2BA4TteKFadghQxZN1C/OBi1WVH6wH1nSLmPcg15a4tiJ7PCsAqm2
rLqdX9myZS9BvJG800un46vRxaY3OR/Hcjt3pdT7e57YgoMqAL52Qh7YSnju3+Q0
ZS7j/36U57piF4LO+ewEoUdxV7RH3LG4g4XVSE6KqjXv72YyoaB0qsjO1BRx4dLS
zJI8pkDt70YeagB1bU1kjZoWdyK3M2OubJ8/71jLPnPzgFsYS4ZOmmbe+SrfZwj3
dh3cDCIVrb2nDfwX3j9G8njCRcmXwOXDuXofkP6lRj5Ya41I3fdnsTYk0zCpyc3A
ckecdMz5+BxkvrCjAgMBAAGjgZowgZcwCQYDVR0TBAIwADAdBgNVHQ4EFgQUuomg
ZJOhRgac3ya0+JwdPQdVHlQwSQYDVR0jBEIwQIAUwNDSn42L1yZYBfiMsiQTy8JE
2puhHaQbMBkxFzAVBgNVBAMMDjEyMy4xMjYuMTEwLjI3ggkA53ukCg1mkB0wEwYD
VR0lBAwwCgYIKwYBBQUHAwIwCwYDVR0PBAQDAgeAMA0GCSqGSIb3DQEBCwUAA4IB
AQCSK7KTQ3iq2j5nj2zTk6jyDQatPjYiPnCK7D+FCvpBoqKd16BLcMVJgXdVP0op
hxh1/IbR77RiNgb7dMcO7mqY3HtGEpR5sQqOvMxNFcEAIkqDZdH5g39emtBtumTP
tpZSSXHs7X20gsvK04qMIs59/qvSCU0pgU779pQ3oG8l3yoI0dMrnTMIeoR5YeX+
NVhPfRkt6fPxGf0/pf/48DuhOBI+7oFt2sZXLSagsDI3Aj8lSUbWDK73LhcGVRSR
90vxXHPddK6hUFVX5F95TTz/6PmGM09pzKSyweLFKjfU+mnKWvnVyshGUIOBDLvR
rLFR8F4iDqwXOR+BRkHpJQ5h
-----END CERTIFICATE-----
