Certificate:
    Data:
        Version: 3 (0x2)
        Serial Number: 1 (0x1)
    Signature Algorithm: sha256WithRSAEncryption
        Issuer: CN=123.126.110.27
        Validity
            Not Before: Jun 12 11:04:41 2017 GMT
            Not After : Jun 10 11:04:41 2027 GMT
        Subject: CN=123.126.110.27
        Subject Public Key Info:
            Public Key Algorithm: rsaEncryption
                Public-Key: (2048 bit)
                Modulus:
                    00:c2:d3:d3:02:24:34:ad:3f:7e:22:fd:a7:bf:e5:
                    1d:77:b4:22:71:20:30:ad:b6:16:58:ee:1a:a9:06:
                    ba:16:7b:ec:86:7a:65:82:85:d8:35:24:e6:5e:d5:
                    45:d9:db:e0:7f:06:03:6c:c7:a0:50:68:0a:cd:0a:
                    70:06:08:ad:d9:9f:57:ac:ea:db:14:b7:de:76:9b:
                    f5:6f:73:97:03:a6:2e:b1:51:81:ac:a1:9b:d6:f6:
                    76:bc:c2:0a:51:ef:51:c5:a2:95:68:c1:b9:76:62:
                    fa:4d:ff:33:35:0f:84:57:98:be:b9:31:91:fc:18:
                    c7:4c:45:7b:95:55:7c:99:30:09:19:b5:df:8f:ce:
                    ad:c9:7d:bc:de:9a:d6:30:9e:5a:9b:9b:50:dd:93:
                    8f:d5:30:24:f2:a5:d5:12:ad:7c:66:64:6c:52:51:
                    87:58:9e:46:80:4f:c3:11:80:bc:fa:4f:52:46:44:
                    7c:29:57:75:e8:97:b5:63:b1:3f:97:59:7e:5a:92:
                    ef:1c:ed:6a:d7:00:bf:ad:af:09:4e:78:fc:52:33:
                    cb:8b:69:be:8c:73:10:4e:47:fe:9c:85:22:3b:70:
                    23:d3:52:e8:82:c3:da:c1:d0:35:1c:6d:04:9e:c2:
                    c7:9f:c2:de:f2:cb:89:0d:50:85:7b:53:f5:88:ec:
                    57:a3
                Exponent: 65537 (0x10001)
        X509v3 extensions:
            X509v3 Basic Constraints: 
                CA:FALSE
            X509v3 Subject Key Identifier: 
                39:3C:33:CF:DF:12:4C:FE:C1:1B:FA:FE:C0:D4:55:83:56:C5:4D:31
            X509v3 Authority Key Identifier: 
                keyid:C0:D0:D2:9F:8D:8B:D7:26:58:05:F8:8C:B2:24:13:CB:C2:44:DA:9B
                DirName:/CN=123.126.110.27
                serial:E7:7B:A4:0A:0D:66:90:1D

            X509v3 Extended Key Usage: 
                TLS Web Server Authentication
            X509v3 Key Usage: 
                Digital Signature, Key Encipherment
    Signature Algorithm: sha256WithRSAEncryption
         8f:e7:56:96:99:91:38:a7:60:67:38:e0:d2:b8:09:a7:ac:96:
         4c:59:c2:86:94:93:7d:2c:10:fc:84:c9:6a:24:89:9a:d9:93:
         39:bf:97:fd:92:5b:cd:d5:d8:1e:bc:de:b5:c1:de:0a:78:10:
         c0:03:d8:89:e1:fe:54:75:95:95:59:60:6d:f6:1a:d5:db:21:
         e7:16:05:14:f3:7c:87:6b:f0:36:18:ae:35:80:7f:33:63:81:
         dc:88:0b:21:ca:b3:c4:d7:16:cd:f8:96:52:d0:e9:15:87:9a:
         50:89:af:d5:0e:e1:9b:60:00:8d:0e:8c:5a:7e:8b:76:34:83:
         23:98:61:70:36:bb:55:de:d9:39:d7:ef:d0:dc:b7:6c:fe:5f:
         3e:58:01:95:31:a9:5a:ad:79:e6:1c:71:28:8c:6c:d2:84:85:
         56:4d:18:27:91:d4:28:c7:c7:dd:c4:2a:52:26:ee:d3:f4:93:
         69:42:02:ba:e9:1c:f5:4b:03:22:49:96:f6:ce:14:6c:fd:01:
         a7:fe:56:74:e9:66:16:23:c3:96:2e:0d:a6:37:6a:02:74:29:
         16:1c:17:13:eb:5b:e7:ce:a8:0b:53:02:26:09:cc:6b:12:ab:
         57:0c:0c:96:ca:74:f6:fb:c8:26:c5:d6:46:0e:db:24:f3:05:
         05:bf:c0:bf
-----BEGIN CERTIFICATE-----
MIIDSDCCAjCgAwIBAgIBATANBgkqhkiG9w0BAQsFADAZMRcwFQYDVQQDDA4xMjMu
MTI2LjExMC4yNzAeFw0xNzA2MTIxMTA0NDFaFw0yNzA2MTAxMTA0NDFaMBkxFzAV
BgNVBAMMDjEyMy4xMjYuMTEwLjI3MIIBIjANBgkqhkiG9w0BAQEFAAOCAQ8AMIIB
CgKCAQEAwtPTAiQ0rT9+Iv2nv+Udd7QicSAwrbYWWO4aqQa6FnvshnplgoXYNSTm
XtVF2dvgfwYDbMegUGgKzQpwBgit2Z9XrOrbFLfedpv1b3OXA6YusVGBrKGb1vZ2
vMIKUe9RxaKVaMG5dmL6Tf8zNQ+EV5i+uTGR/BjHTEV7lVV8mTAJGbXfj86tyX28
3prWMJ5am5tQ3ZOP1TAk8qXVEq18ZmRsUlGHWJ5GgE/DEYC8+k9SRkR8KVd16Je1
Y7E/l1l+WpLvHO1q1wC/ra8JTnj8UjPLi2m+jHMQTkf+nIUiO3Aj01LogsPawdA1
HG0EnsLHn8Le8suJDVCFe1P1iOxXowIDAQABo4GaMIGXMAkGA1UdEwQCMAAwHQYD
VR0OBBYEFDk8M8/fEkz+wRv6/sDUVYNWxU0xMEkGA1UdIwRCMECAFMDQ0p+Ni9cm
WAX4jLIkE8vCRNqboR2kGzAZMRcwFQYDVQQDDA4xMjMuMTI2LjExMC4yN4IJAOd7
pAoNZpAdMBMGA1UdJQQMMAoGCCsGAQUFBwMBMAsGA1UdDwQEAwIFoDANBgkqhkiG
9w0BAQsFAAOCAQEAj+dWlpmROKdgZzjg0rgJp6yWTFnChpSTfSwQ/ITJaiSJmtmT
Ob+X/ZJbzdXYHrzetcHeCngQwAPYieH+VHWVlVlgbfYa1dsh5xYFFPN8h2vwNhiu
NYB/M2OB3IgLIcqzxNcWzfiWUtDpFYeaUImv1Q7hm2AAjQ6MWn6LdjSDI5hhcDa7
Vd7ZOdfv0Ny3bP5fPlgBlTGpWq155hxxKIxs0oSFVk0YJ5HUKMfH3cQqUibu0/ST
aUICuukc9UsDIkmW9s4UbP0Bp/5WdOlmFiPDli4NpjdqAnQpFhwXE+tb586oC1MC
JgnMaxKrVwwMlsp09vvIJsXWRg7bJPMFBb/Avw==
-----END CERTIFICATE-----
